; Function Attrs: nounwind uwtable
define dso_local void @cost_resultscan(ptr noundef writeonly captures(none) initializes((40, 48)) %0, ptr noundef %1, ptr noundef readonly captures(none) %2, ptr noundef readonly captures(address_is_null) %3) local_unnamed_addr #2 {
  %5 = alloca %struct.cost_qual_eval_context, align 8
  %.not = icmp eq ptr %3, null
  %6 = getelementptr inbounds nuw i8, ptr %0, i64 40
  br i1 %.not, label %.split19, label %7

7:                                                ; preds = %4
  %8 = getelementptr inbounds nuw i8, ptr %3, i64 16
  %9 = load double, ptr %8, align 8
  store double %9, ptr %6, align 8
  %10 = getelementptr inbounds nuw i8, ptr %3, i64 24
  %11 = load ptr, ptr %10, align 8
  call void @llvm.lifetime.start.p0(i64 24, ptr nonnull %5) #17
  store ptr %1, ptr %5, align 8
  %12 = getelementptr inbounds nuw i8, ptr %5, i64 8
  %13 = getelementptr inbounds nuw i8, ptr %11, i64 4
  %.not.i.i = icmp eq ptr %11, null
  call void @llvm.memset.p0.i64(ptr noundef nonnull align 8 dereferenceable(16) %12, i8 0, i64 16, i1 false)
  br i1 %.not.i.i, label %get_restriction_qual_cost.exit, label %.lr.ph.i.i

.lr.ph.i.i:                                       ; preds = %7
  %14 = getelementptr inbounds nuw i8, ptr %11, i64 16
  %15 = load i32, ptr %13, align 4
  %16 = icmp sgt i32 %15, 0
  br i1 %16, label %.lr.ph16.i.i, label %get_restriction_qual_cost.exit

.lr.ph16.i.i:                                     ; preds = %.lr.ph.i.i, %.lr.ph16.i.i
  %indvars.iv.i.i = phi i64 [ %indvars.iv.next.i.i, %.lr.ph16.i.i ], [ 0, %.lr.ph.i.i ]
  %17 = load ptr, ptr %14, align 8
  %18 = getelementptr inbounds nuw %union.ListCell, ptr %17, i64 %indvars.iv.i.i
  %19 = load ptr, ptr %18, align 8
  %20 = call zeroext i1 @cost_qual_eval_walker(ptr noundef %19, ptr noundef nonnull %5)
  %indvars.iv.next.i.i = add nuw nsw i64 %indvars.iv.i.i, 1
  %21 = load i32, ptr %13, align 4
  %22 = sext i32 %21 to i64
  %23 = icmp slt i64 %indvars.iv.next.i.i, %22
  br i1 %23, label %.lr.ph16.i.i, label %get_restriction_qual_cost.exit.loopexit

get_restriction_qual_cost.exit.loopexit:          ; preds = %.lr.ph16.i.i
  %.sroa.0.0.copyload.pre = load double, ptr %12, align 8
  %.sroa.8.0..sroa_idx.phi.trans.insert = getelementptr inbounds nuw i8, ptr %5, i64 16
  %.sroa.8.0.copyload.pre = load double, ptr %.sroa.8.0..sroa_idx.phi.trans.insert, align 8
  br label %get_restriction_qual_cost.exit

get_restriction_qual_cost.exit:                   ; preds = %get_restriction_qual_cost.exit.loopexit, %7, %.lr.ph.i.i
  %.sroa.8.0.copyload = phi double [ %.sroa.8.0.copyload.pre, %get_restriction_qual_cost.exit.loopexit ], [ 0.000000e+00, %7 ], [ 0.000000e+00, %.lr.ph.i.i ]
  %.sroa.0.0.copyload = phi double [ %.sroa.0.0.copyload.pre, %get_restriction_qual_cost.exit.loopexit ], [ 0.000000e+00, %7 ], [ 0.000000e+00, %.lr.ph.i.i ]
  call void @llvm.lifetime.end.p0(i64 24, ptr nonnull %5) #17
  %24 = getelementptr inbounds nuw i8, ptr %2, i64 304
  %25 = load double, ptr %24, align 8
  %26 = fadd double %.sroa.0.0.copyload, %25
  %27 = getelementptr inbounds nuw i8, ptr %2, i64 312
  %28 = load double, ptr %27, align 8
  %29 = fadd double %.sroa.8.0.copyload, %28
  br label %33

.split19:                                         ; preds = %4
  %30 = getelementptr inbounds nuw i8, ptr %2, i64 16
  %31 = load double, ptr %30, align 8
  store double %31, ptr %6, align 8
  %32 = getelementptr inbounds nuw i8, ptr %2, i64 304
  %.sroa.0.0.copyload22 = load double, ptr %32, align 8
  %.sroa.8.0..sroa_idx25 = getelementptr inbounds nuw i8, ptr %2, i64 312
  %.sroa.8.0.copyload26 = load double, ptr %.sroa.8.0..sroa_idx25, align 8
  br label %33

33:                                               ; preds = %.split19, %get_restriction_qual_cost.exit
  %.sroa.8.0 = phi double [ %.sroa.8.0.copyload26, %.split19 ], [ %29, %get_restriction_qual_cost.exit ]
  %.sroa.0.0 = phi double [ %.sroa.0.0.copyload22, %.split19 ], [ %26, %get_restriction_qual_cost.exit ]
  %34 = fadd double %.sroa.0.0, 0.000000e+00
  %35 = load double, ptr @cpu_tuple_cost, align 8
  %36 = fadd double %.sroa.8.0, %35
  %37 = getelementptr inbounds nuw i8, ptr %2, i64 200
  %38 = load double, ptr %37, align 8
  %39 = call double @llvm.fmuladd.f64(double %36, double %38, double 0.000000e+00)
  %40 = getelementptr inbounds nuw i8, ptr %0, i64 48
  store i32 0, ptr %40, align 8
  %41 = getelementptr inbounds nuw i8, ptr %0, i64 56
  store double %34, ptr %41, align 8
  %42 = fadd double %34, %39
  %43 = getelementptr inbounds nuw i8, ptr %0, i64 64
  store double %42, ptr %43, align 8
  ret void
}